ARM GAS  C:\Users\Qian\AppData\Local\Temp\ccEaQAN2.s 			page 1


   1              		.cpu cortex-m3
   2              		.eabi_attribute 20, 1
   3              		.eabi_attribute 21, 1
   4              		.eabi_attribute 23, 3
   5              		.eabi_attribute 24, 1
   6              		.eabi_attribute 25, 1
   7              		.eabi_attribute 26, 1
   8              		.eabi_attribute 30, 1
   9              		.eabi_attribute 34, 1
  10              		.eabi_attribute 18, 4
  11              		.file	"os.c"
  12              		.text
  13              	.Ltext0:
  14              		.cfi_sections	.debug_frame
  15              		.section	.text.scheduler,"ax",%progbits
  16              		.align	1
  17              		.global	scheduler
  18              		.syntax unified
  19              		.thumb
  20              		.thumb_func
  21              		.fpu softvfp
  23              	scheduler:
  24              	.LFB66:
  25              		.file 1 "Src/os.c"
   1:Src/os.c      **** #include "os.h"
   2:Src/os.c      **** #include "task.h"
   3:Src/os.c      **** 
   4:Src/os.c      **** #include "debug.h"
   5:Src/os.c      **** 
   6:Src/os.c      **** int os_started = 0;
   7:Src/os.c      **** 
   8:Src/os.c      **** int scheduler()
   9:Src/os.c      **** {
  26              		.loc 1 9 0
  27              		.cfi_startproc
  28              		@ args = 0, pretend = 0, frame = 0
  29              		@ frame_needed = 0, uses_anonymous_args = 0
  30 0000 10B5     		push	{r4, lr}
  31              	.LCFI0:
  32              		.cfi_def_cfa_offset 8
  33              		.cfi_offset 4, -8
  34              		.cfi_offset 14, -4
  10:Src/os.c      ****     enterCritical();
  35              		.loc 1 10 0
  36 0002 FFF7FEFF 		bl	enterCritical
  37              	.LVL0:
  11:Src/os.c      ****     int nextTask = getNextReady();
  38              		.loc 1 11 0
  39 0006 FFF7FEFF 		bl	getNextReady
  40              	.LVL1:
  12:Src/os.c      ****     if (nextTask == NO_SUCH_TASK)
  41              		.loc 1 12 0
  42 000a B0F1FF3F 		cmp	r0, #-1
  43 000e 09D0     		beq	.L5
  44 0010 0446     		mov	r4, r0
  13:Src/os.c      ****     {
  14:Src/os.c      ****         //Enter Sleep Mode
ARM GAS  C:\Users\Qian\AppData\Local\Temp\ccEaQAN2.s 			page 2


  15:Src/os.c      ****         logger(&huart1, "Scheduler_Sleep\n");
  16:Src/os.c      ****         exitCritical();
  17:Src/os.c      ****         while(1){};
  18:Src/os.c      ****     }
  19:Src/os.c      ****     else
  20:Src/os.c      ****     {
  21:Src/os.c      ****         logger(&huart1, "Scheduler_Switch\n");
  45              		.loc 1 21 0
  46 0012 0849     		ldr	r1, .L6
  47 0014 0848     		ldr	r0, .L6+4
  48              	.LVL2:
  49 0016 FFF7FEFF 		bl	logger
  50              	.LVL3:
  22:Src/os.c      ****         switchTaskTo(nextTask);
  51              		.loc 1 22 0
  52 001a 2046     		mov	r0, r4
  53 001c FFF7FEFF 		bl	switchTaskTo
  54              	.LVL4:
  23:Src/os.c      ****     }
  24:Src/os.c      ****     return 0;
  25:Src/os.c      **** }
  55              		.loc 1 25 0
  56 0020 0020     		movs	r0, #0
  57 0022 10BD     		pop	{r4, pc}
  58              	.LVL5:
  59              	.L5:
  15:Src/os.c      ****         exitCritical();
  60              		.loc 1 15 0
  61 0024 0549     		ldr	r1, .L6+8
  62 0026 0448     		ldr	r0, .L6+4
  63              	.LVL6:
  64 0028 FFF7FEFF 		bl	logger
  65              	.LVL7:
  16:Src/os.c      ****         while(1){};
  66              		.loc 1 16 0
  67 002c FFF7FEFF 		bl	exitCritical
  68              	.LVL8:
  69              	.L3:
  70 0030 FEE7     		b	.L3
  71              	.L7:
  72 0032 00BF     		.align	2
  73              	.L6:
  74 0034 14000000 		.word	.LC1
  75 0038 00000000 		.word	huart1
  76 003c 00000000 		.word	.LC0
  77              		.cfi_endproc
  78              	.LFE66:
  80              		.section	.text.halfScheduler,"ax",%progbits
  81              		.align	1
  82              		.global	halfScheduler
  83              		.syntax unified
  84              		.thumb
  85              		.thumb_func
  86              		.fpu softvfp
  88              	halfScheduler:
  89              	.LFB67:
  26:Src/os.c      **** 
ARM GAS  C:\Users\Qian\AppData\Local\Temp\ccEaQAN2.s 			page 3


  27:Src/os.c      **** int halfScheduler()
  28:Src/os.c      **** {
  90              		.loc 1 28 0
  91              		.cfi_startproc
  92              		@ args = 0, pretend = 0, frame = 0
  93              		@ frame_needed = 0, uses_anonymous_args = 0
  94 0000 08B5     		push	{r3, lr}
  95              	.LCFI1:
  96              		.cfi_def_cfa_offset 8
  97              		.cfi_offset 3, -8
  98              		.cfi_offset 14, -4
  29:Src/os.c      ****     enterCritical();
  99              		.loc 1 29 0
 100 0002 FFF7FEFF 		bl	enterCritical
 101              	.LVL9:
  30:Src/os.c      **** 
  31:Src/os.c      ****     int nextTask = getNextReady();
 102              		.loc 1 31 0
 103 0006 FFF7FEFF 		bl	getNextReady
 104              	.LVL10:
  32:Src/os.c      ****     if (nextTask != NO_SUCH_TASK)
 105              		.loc 1 32 0
 106 000a B0F1FF3F 		cmp	r0, #-1
 107 000e 01D0     		beq	.L9
  33:Src/os.c      ****     {
  34:Src/os.c      ****         runFirstTask(nextTask);
 108              		.loc 1 34 0
 109 0010 FFF7FEFF 		bl	runFirstTask
 110              	.LVL11:
 111              	.L9:
  35:Src/os.c      ****     }
  36:Src/os.c      ****     return 0;
  37:Src/os.c      **** }
 112              		.loc 1 37 0
 113 0014 0020     		movs	r0, #0
 114 0016 08BD     		pop	{r3, pc}
 115              		.cfi_endproc
 116              	.LFE67:
 118              		.section	.text.osStart,"ax",%progbits
 119              		.align	1
 120              		.global	osStart
 121              		.syntax unified
 122              		.thumb
 123              		.thumb_func
 124              		.fpu softvfp
 126              	osStart:
 127              	.LFB68:
  38:Src/os.c      **** 
  39:Src/os.c      **** int osStart()
  40:Src/os.c      **** {
 128              		.loc 1 40 0
 129              		.cfi_startproc
 130              		@ args = 0, pretend = 0, frame = 0
 131              		@ frame_needed = 0, uses_anonymous_args = 0
 132 0000 08B5     		push	{r3, lr}
 133              	.LCFI2:
 134              		.cfi_def_cfa_offset 8
ARM GAS  C:\Users\Qian\AppData\Local\Temp\ccEaQAN2.s 			page 4


 135              		.cfi_offset 3, -8
 136              		.cfi_offset 14, -4
  41:Src/os.c      ****     logger(&huart1, "OS_Started\n");
 137              		.loc 1 41 0
 138 0002 0549     		ldr	r1, .L13
 139 0004 0548     		ldr	r0, .L13+4
 140 0006 FFF7FEFF 		bl	logger
 141              	.LVL12:
  42:Src/os.c      ****     os_started = 1;
 142              		.loc 1 42 0
 143 000a 054B     		ldr	r3, .L13+8
 144 000c 0122     		movs	r2, #1
 145 000e 1A60     		str	r2, [r3]
  43:Src/os.c      ****     //scheduler();
  44:Src/os.c      ****     halfScheduler();
 146              		.loc 1 44 0
 147 0010 FFF7FEFF 		bl	halfScheduler
 148              	.LVL13:
  45:Src/os.c      ****     return 0;
  46:Src/os.c      **** }
 149              		.loc 1 46 0
 150 0014 0020     		movs	r0, #0
 151 0016 08BD     		pop	{r3, pc}
 152              	.L14:
 153              		.align	2
 154              	.L13:
 155 0018 00000000 		.word	.LC2
 156 001c 00000000 		.word	huart1
 157 0020 00000000 		.word	.LANCHOR0
 158              		.cfi_endproc
 159              	.LFE68:
 161              		.section	.text.os_pre,"ax",%progbits
 162              		.align	1
 163              		.global	os_pre
 164              		.syntax unified
 165              		.thumb
 166              		.thumb_func
 167              		.fpu softvfp
 169              	os_pre:
 170              	.LFB69:
  47:Src/os.c      **** 
  48:Src/os.c      **** int os_pre()
  49:Src/os.c      **** {
 171              		.loc 1 49 0
 172              		.cfi_startproc
 173              		@ args = 0, pretend = 0, frame = 0
 174              		@ frame_needed = 0, uses_anonymous_args = 0
 175 0000 08B5     		push	{r3, lr}
 176              	.LCFI3:
 177              		.cfi_def_cfa_offset 8
 178              		.cfi_offset 3, -8
 179              		.cfi_offset 14, -4
  50:Src/os.c      ****     logger(&huart1, "OS_Pre\n");
 180              		.loc 1 50 0
 181 0002 0449     		ldr	r1, .L17
 182 0004 0448     		ldr	r0, .L17+4
 183 0006 FFF7FEFF 		bl	logger
ARM GAS  C:\Users\Qian\AppData\Local\Temp\ccEaQAN2.s 			page 5


 184              	.LVL14:
  51:Src/os.c      ****     initTask();
 185              		.loc 1 51 0
 186 000a FFF7FEFF 		bl	initTask
 187              	.LVL15:
  52:Src/os.c      ****     return 0;
  53:Src/os.c      **** }
 188              		.loc 1 53 0
 189 000e 0020     		movs	r0, #0
 190 0010 08BD     		pop	{r3, pc}
 191              	.L18:
 192 0012 00BF     		.align	2
 193              	.L17:
 194 0014 00000000 		.word	.LC3
 195 0018 00000000 		.word	huart1
 196              		.cfi_endproc
 197              	.LFE69:
 199              		.section	.text.os_sysTickHandler,"ax",%progbits
 200              		.align	1
 201              		.global	os_sysTickHandler
 202              		.syntax unified
 203              		.thumb
 204              		.thumb_func
 205              		.fpu softvfp
 207              	os_sysTickHandler:
 208              	.LFB70:
  54:Src/os.c      **** 
  55:Src/os.c      **** int os_sysTickHandler()
  56:Src/os.c      **** {
 209              		.loc 1 56 0
 210              		.cfi_startproc
 211              		@ args = 0, pretend = 0, frame = 0
 212              		@ frame_needed = 0, uses_anonymous_args = 0
 213 0000 08B5     		push	{r3, lr}
 214              	.LCFI4:
 215              		.cfi_def_cfa_offset 8
 216              		.cfi_offset 3, -8
 217              		.cfi_offset 14, -4
  57:Src/os.c      ****     logger(&huart1, "OS_Systick1\n");
 218              		.loc 1 57 0
 219 0002 0F49     		ldr	r1, .L26
 220 0004 0F48     		ldr	r0, .L26+4
 221 0006 FFF7FEFF 		bl	logger
 222              	.LVL16:
  58:Src/os.c      ****     enterCritical();
 223              		.loc 1 58 0
 224 000a FFF7FEFF 		bl	enterCritical
 225              	.LVL17:
  59:Src/os.c      ****     if (!os_started)
 226              		.loc 1 59 0
 227 000e 0E4B     		ldr	r3, .L26+8
 228 0010 1B68     		ldr	r3, [r3]
 229 0012 53B1     		cbz	r3, .L24
  60:Src/os.c      ****     {
  61:Src/os.c      ****         logger(&huart1, "OS_Systick_notStarted\n");
  62:Src/os.c      ****         exitCritical();
  63:Src/os.c      ****         return 0;
ARM GAS  C:\Users\Qian\AppData\Local\Temp\ccEaQAN2.s 			page 6


  64:Src/os.c      ****     }
  65:Src/os.c      ****     //TODO: Problem with the Interrupt
  66:Src/os.c      ****     
  67:Src/os.c      ****     
  68:Src/os.c      ****     logger(&huart1, "OS_Systick\n");
 230              		.loc 1 68 0
 231 0014 0D49     		ldr	r1, .L26+12
 232 0016 0B48     		ldr	r0, .L26+4
 233 0018 FFF7FEFF 		bl	logger
 234              	.LVL18:
  69:Src/os.c      **** 
  70:Src/os.c      ****     if (task_sysTickHandler())
 235              		.loc 1 70 0
 236 001c FFF7FEFF 		bl	task_sysTickHandler
 237              	.LVL19:
 238 0020 50B9     		cbnz	r0, .L25
 239              	.L22:
  71:Src/os.c      ****     {
  72:Src/os.c      ****         scheduler();
  73:Src/os.c      ****     }
  74:Src/os.c      ****     
  75:Src/os.c      ****     //TODO: Problem with the Interrupt
  76:Src/os.c      ****     exitCritical();
 240              		.loc 1 76 0
 241 0022 FFF7FEFF 		bl	exitCritical
 242              	.LVL20:
 243              	.L21:
  77:Src/os.c      ****     return 0;
  78:Src/os.c      **** }
 244              		.loc 1 78 0
 245 0026 0020     		movs	r0, #0
 246 0028 08BD     		pop	{r3, pc}
 247              	.L24:
  61:Src/os.c      ****         exitCritical();
 248              		.loc 1 61 0
 249 002a 0949     		ldr	r1, .L26+16
 250 002c 0548     		ldr	r0, .L26+4
 251 002e FFF7FEFF 		bl	logger
 252              	.LVL21:
  62:Src/os.c      ****         return 0;
 253              		.loc 1 62 0
 254 0032 FFF7FEFF 		bl	exitCritical
 255              	.LVL22:
  63:Src/os.c      ****     }
 256              		.loc 1 63 0
 257 0036 F6E7     		b	.L21
 258              	.L25:
  72:Src/os.c      ****     }
 259              		.loc 1 72 0
 260 0038 FFF7FEFF 		bl	scheduler
 261              	.LVL23:
 262 003c F1E7     		b	.L22
 263              	.L27:
 264 003e 00BF     		.align	2
 265              	.L26:
 266 0040 00000000 		.word	.LC4
 267 0044 00000000 		.word	huart1
ARM GAS  C:\Users\Qian\AppData\Local\Temp\ccEaQAN2.s 			page 7


 268 0048 00000000 		.word	.LANCHOR0
 269 004c 28000000 		.word	.LC6
 270 0050 10000000 		.word	.LC5
 271              		.cfi_endproc
 272              	.LFE70:
 274              		.section	.text.os_setTaskDelay,"ax",%progbits
 275              		.align	1
 276              		.global	os_setTaskDelay
 277              		.syntax unified
 278              		.thumb
 279              		.thumb_func
 280              		.fpu softvfp
 282              	os_setTaskDelay:
 283              	.LFB71:
  79:Src/os.c      **** 
  80:Src/os.c      **** int os_setTaskDelay(uint32_t ms)
  81:Src/os.c      **** {
 284              		.loc 1 81 0
 285              		.cfi_startproc
 286              		@ args = 0, pretend = 0, frame = 0
 287              		@ frame_needed = 0, uses_anonymous_args = 0
 288              	.LVL24:
 289 0000 10B5     		push	{r4, lr}
 290              	.LCFI5:
 291              		.cfi_def_cfa_offset 8
 292              		.cfi_offset 4, -8
 293              		.cfi_offset 14, -4
 294 0002 0446     		mov	r4, r0
  82:Src/os.c      ****     enterCritical();
 295              		.loc 1 82 0
 296 0004 FFF7FEFF 		bl	enterCritical
 297              	.LVL25:
  83:Src/os.c      **** 
  84:Src/os.c      ****     logger(&huart1, "OS_SetDelay\n");
 298              		.loc 1 84 0
 299 0008 0749     		ldr	r1, .L30
 300 000a 0848     		ldr	r0, .L30+4
 301 000c FFF7FEFF 		bl	logger
 302              	.LVL26:
  85:Src/os.c      **** 
  86:Src/os.c      ****     taskDelay(ms * 72);
 303              		.loc 1 86 0
 304 0010 04EBC404 		add	r4, r4, r4, lsl #3
 305              	.LVL27:
 306 0014 E000     		lsls	r0, r4, #3
 307 0016 FFF7FEFF 		bl	taskDelay
 308              	.LVL28:
  87:Src/os.c      ****     scheduler();
 309              		.loc 1 87 0
 310 001a FFF7FEFF 		bl	scheduler
 311              	.LVL29:
  88:Src/os.c      ****     exitCritical();
 312              		.loc 1 88 0
 313 001e FFF7FEFF 		bl	exitCritical
 314              	.LVL30:
  89:Src/os.c      ****     return 0;
  90:Src/os.c      **** }
ARM GAS  C:\Users\Qian\AppData\Local\Temp\ccEaQAN2.s 			page 8


 315              		.loc 1 90 0
 316 0022 0020     		movs	r0, #0
 317 0024 10BD     		pop	{r4, pc}
 318              	.L31:
 319 0026 00BF     		.align	2
 320              	.L30:
 321 0028 00000000 		.word	.LC7
 322 002c 00000000 		.word	huart1
 323              		.cfi_endproc
 324              	.LFE71:
 326              		.section	.text.os_createTask,"ax",%progbits
 327              		.align	1
 328              		.global	os_createTask
 329              		.syntax unified
 330              		.thumb
 331              		.thumb_func
 332              		.fpu softvfp
 334              	os_createTask:
 335              	.LFB72:
  91:Src/os.c      **** 
  92:Src/os.c      **** int os_createTask( void* (*foo)())
  93:Src/os.c      **** {
 336              		.loc 1 93 0
 337              		.cfi_startproc
 338              		@ args = 0, pretend = 0, frame = 0
 339              		@ frame_needed = 0, uses_anonymous_args = 0
 340              	.LVL31:
 341 0000 08B5     		push	{r3, lr}
 342              	.LCFI6:
 343              		.cfi_def_cfa_offset 8
 344              		.cfi_offset 3, -8
 345              		.cfi_offset 14, -4
  94:Src/os.c      ****     return createTask(foo);
 346              		.loc 1 94 0
 347 0002 FFF7FEFF 		bl	createTask
 348              	.LVL32:
  95:Src/os.c      **** }
 349              		.loc 1 95 0
 350 0006 08BD     		pop	{r3, pc}
 351              		.cfi_endproc
 352              	.LFE72:
 354              		.section	.text.os_enterCritical,"ax",%progbits
 355              		.align	1
 356              		.global	os_enterCritical
 357              		.syntax unified
 358              		.thumb
 359              		.thumb_func
 360              		.fpu softvfp
 362              	os_enterCritical:
 363              	.LFB73:
  96:Src/os.c      **** 
  97:Src/os.c      **** int os_enterCritical()
  98:Src/os.c      **** {
 364              		.loc 1 98 0
 365              		.cfi_startproc
 366              		@ args = 0, pretend = 0, frame = 0
 367              		@ frame_needed = 0, uses_anonymous_args = 0
ARM GAS  C:\Users\Qian\AppData\Local\Temp\ccEaQAN2.s 			page 9


 368 0000 08B5     		push	{r3, lr}
 369              	.LCFI7:
 370              		.cfi_def_cfa_offset 8
 371              		.cfi_offset 3, -8
 372              		.cfi_offset 14, -4
  99:Src/os.c      ****     enterCritical();
 373              		.loc 1 99 0
 374 0002 FFF7FEFF 		bl	enterCritical
 375              	.LVL33:
 100:Src/os.c      ****     return 0;
 101:Src/os.c      **** }
 376              		.loc 1 101 0
 377 0006 0020     		movs	r0, #0
 378 0008 08BD     		pop	{r3, pc}
 379              		.cfi_endproc
 380              	.LFE73:
 382              		.section	.text.os_exitCritical,"ax",%progbits
 383              		.align	1
 384              		.global	os_exitCritical
 385              		.syntax unified
 386              		.thumb
 387              		.thumb_func
 388              		.fpu softvfp
 390              	os_exitCritical:
 391              	.LFB74:
 102:Src/os.c      **** 
 103:Src/os.c      **** int os_exitCritical()
 104:Src/os.c      **** {
 392              		.loc 1 104 0
 393              		.cfi_startproc
 394              		@ args = 0, pretend = 0, frame = 0
 395              		@ frame_needed = 0, uses_anonymous_args = 0
 396 0000 08B5     		push	{r3, lr}
 397              	.LCFI8:
 398              		.cfi_def_cfa_offset 8
 399              		.cfi_offset 3, -8
 400              		.cfi_offset 14, -4
 105:Src/os.c      ****     exitCritical();
 401              		.loc 1 105 0
 402 0002 FFF7FEFF 		bl	exitCritical
 403              	.LVL34:
 106:Src/os.c      ****     return 0;
 107:Src/os.c      **** }
 404              		.loc 1 107 0
 405 0006 0020     		movs	r0, #0
 406 0008 08BD     		pop	{r3, pc}
 407              		.cfi_endproc
 408              	.LFE74:
 410              		.global	os_started
 411              		.section	.bss.os_started,"aw",%nobits
 412              		.align	2
 413              		.set	.LANCHOR0,. + 0
 416              	os_started:
 417 0000 00000000 		.space	4
 418              		.section	.rodata.osStart.str1.4,"aMS",%progbits,1
 419              		.align	2
 420              	.LC2:
ARM GAS  C:\Users\Qian\AppData\Local\Temp\ccEaQAN2.s 			page 10


 421 0000 4F535F53 		.ascii	"OS_Started\012\000"
 421      74617274 
 421      65640A00 
 422              		.section	.rodata.os_pre.str1.4,"aMS",%progbits,1
 423              		.align	2
 424              	.LC3:
 425 0000 4F535F50 		.ascii	"OS_Pre\012\000"
 425      72650A00 
 426              		.section	.rodata.os_setTaskDelay.str1.4,"aMS",%progbits,1
 427              		.align	2
 428              	.LC7:
 429 0000 4F535F53 		.ascii	"OS_SetDelay\012\000"
 429      65744465 
 429      6C61790A 
 429      00
 430              		.section	.rodata.os_sysTickHandler.str1.4,"aMS",%progbits,1
 431              		.align	2
 432              	.LC4:
 433 0000 4F535F53 		.ascii	"OS_Systick1\012\000"
 433      79737469 
 433      636B310A 
 433      00
 434 000d 000000   		.space	3
 435              	.LC5:
 436 0010 4F535F53 		.ascii	"OS_Systick_notStarted\012\000"
 436      79737469 
 436      636B5F6E 
 436      6F745374 
 436      61727465 
 437 0027 00       		.space	1
 438              	.LC6:
 439 0028 4F535F53 		.ascii	"OS_Systick\012\000"
 439      79737469 
 439      636B0A00 
 440              		.section	.rodata.scheduler.str1.4,"aMS",%progbits,1
 441              		.align	2
 442              	.LC0:
 443 0000 53636865 		.ascii	"Scheduler_Sleep\012\000"
 443      64756C65 
 443      725F536C 
 443      6565700A 
 443      00
 444 0011 000000   		.space	3
 445              	.LC1:
 446 0014 53636865 		.ascii	"Scheduler_Switch\012\000"
 446      64756C65 
 446      725F5377 
 446      69746368 
 446      0A00
 447              		.text
 448              	.Letext0:
 449              		.file 2 "d:\\program files (x86)\\gnu tools arm embedded\\7 2017-q4-major\\arm-none-eabi\\include\
 450              		.file 3 "d:\\program files (x86)\\gnu tools arm embedded\\7 2017-q4-major\\arm-none-eabi\\include\
 451              		.file 4 "Drivers/CMSIS/Include/core_cm3.h"
 452              		.file 5 "Drivers/CMSIS/Device/ST/STM32F1xx/Include/system_stm32f1xx.h"
 453              		.file 6 "Drivers/CMSIS/Device/ST/STM32F1xx/Include/stm32f103xb.h"
 454              		.file 7 "d:\\program files (x86)\\gnu tools arm embedded\\7 2017-q4-major\\arm-none-eabi\\include\
ARM GAS  C:\Users\Qian\AppData\Local\Temp\ccEaQAN2.s 			page 11


 455              		.file 8 "d:\\program files (x86)\\gnu tools arm embedded\\7 2017-q4-major\\arm-none-eabi\\include\
 456              		.file 9 "d:\\program files (x86)\\gnu tools arm embedded\\7 2017-q4-major\\lib\\gcc\\arm-none-eabi
 457              		.file 10 "d:\\program files (x86)\\gnu tools arm embedded\\7 2017-q4-major\\arm-none-eabi\\include
 458              		.file 11 "Drivers/STM32F1xx_HAL_Driver/Inc/stm32f1xx_hal_def.h"
 459              		.file 12 "Drivers/STM32F1xx_HAL_Driver/Inc/stm32f1xx_hal_dma.h"
 460              		.file 13 "Drivers/STM32F1xx_HAL_Driver/Inc/stm32f1xx_hal_uart.h"
 461              		.file 14 "Inc/debug.h"
 462              		.file 15 "Inc/task_cpu.h"
 463              		.file 16 "Inc/task.h"
ARM GAS  C:\Users\Qian\AppData\Local\Temp\ccEaQAN2.s 			page 12

