ARM GAS  C:\Users\Qian\AppData\Local\Temp\ccyniPX3.s 			page 1


   1              		.cpu cortex-m3
   2              		.eabi_attribute 20, 1
   3              		.eabi_attribute 21, 1
   4              		.eabi_attribute 23, 3
   5              		.eabi_attribute 24, 1
   6              		.eabi_attribute 25, 1
   7              		.eabi_attribute 26, 1
   8              		.eabi_attribute 30, 1
   9              		.eabi_attribute 34, 1
  10              		.eabi_attribute 18, 4
  11              		.file	"task_cpu.c"
  12              		.text
  13              	.Ltext0:
  14              		.cfi_sections	.debug_frame
  15              		.section	.text.getCurrentStackPtr,"ax",%progbits
  16              		.align	1
  17              		.global	getCurrentStackPtr
  18              		.syntax unified
  19              		.thumb
  20              		.thumb_func
  21              		.fpu softvfp
  23              	getCurrentStackPtr:
  24              	.LFB66:
  25              		.file 1 "Src/task_cpu.c"
   1:Src/task_cpu.c **** #include <stdlib.h>
   2:Src/task_cpu.c **** 
   3:Src/task_cpu.c **** #include "task_cpu.h"
   4:Src/task_cpu.c **** 
   5:Src/task_cpu.c **** 
   6:Src/task_cpu.c **** #include "debug.h"
   7:Src/task_cpu.c **** 
   8:Src/task_cpu.c **** 
   9:Src/task_cpu.c **** inline void* getCurrentStackPtr()
  10:Src/task_cpu.c **** {
  26              		.loc 1 10 0
  27              		.cfi_startproc
  28              		@ args = 0, pretend = 0, frame = 0
  29              		@ frame_needed = 0, uses_anonymous_args = 0
  30              		@ link register save eliminated.
  31              	.LVL0:
  11:Src/task_cpu.c ****     void* result = 0;
  12:Src/task_cpu.c ****     asm volatile (
  32              		.loc 1 12 0
  33              		.syntax unified
  34              	@ 12 "Src/task_cpu.c" 1
  35 0000 EFF30980 		MRS    r0, psp             
  36              		
  37              	@ 0 "" 2
  38              	.LVL1:
  13:Src/task_cpu.c ****         "MRS    %0, psp             \n\t"
  14:Src/task_cpu.c ****         : "=r" (result)
  15:Src/task_cpu.c ****     );
  16:Src/task_cpu.c ****     return result;
  17:Src/task_cpu.c **** }
  39              		.loc 1 17 0
  40              		.thumb
  41              		.syntax unified
ARM GAS  C:\Users\Qian\AppData\Local\Temp\ccyniPX3.s 			page 2


  42 0004 7047     		bx	lr
  43              		.cfi_endproc
  44              	.LFE66:
  46              		.section	.text.saveContext,"ax",%progbits
  47              		.align	1
  48              		.global	saveContext
  49              		.syntax unified
  50              		.thumb
  51              		.thumb_func
  52              		.fpu softvfp
  54              	saveContext:
  55              	.LFB67:
  18:Src/task_cpu.c **** 
  19:Src/task_cpu.c **** inline int saveContext(char** ptrToCurrentSP)
  20:Src/task_cpu.c **** {
  56              		.loc 1 20 0
  57              		.cfi_startproc
  58              		@ args = 0, pretend = 0, frame = 0
  59              		@ frame_needed = 0, uses_anonymous_args = 0
  60              		@ link register save eliminated.
  61              	.LVL2:
  21:Src/task_cpu.c ****     uint32_t t;
  22:Src/task_cpu.c ****     asm volatile (
  62              		.loc 1 22 0
  63              		.syntax unified
  64              	@ 22 "Src/task_cpu.c" 1
  65 0000 EFF30983 		MRS    r3, psp             
  66 0004 23E9F00F 		STMDB  r3!, {r4-r11}       
  67 0008 83F30988 		MSR    psp, r3             
  68              		
  69              	@ 0 "" 2
  70              	.LVL3:
  23:Src/task_cpu.c ****         "MRS    %0, psp             \n\t"
  24:Src/task_cpu.c ****         "STMDB  %0!, {r4-r11}       \n\t"
  25:Src/task_cpu.c ****         "MSR    psp, %0             \n\t"
  26:Src/task_cpu.c ****         : "=r" (t)        
  27:Src/task_cpu.c ****     );
  28:Src/task_cpu.c ****     *(ptrToCurrentSP) = (char*)t;
  71              		.loc 1 28 0
  72              		.thumb
  73              		.syntax unified
  74 000c 0360     		str	r3, [r0]
  29:Src/task_cpu.c ****     return 0;
  30:Src/task_cpu.c **** }
  75              		.loc 1 30 0
  76 000e 0020     		movs	r0, #0
  77              	.LVL4:
  78 0010 7047     		bx	lr
  79              		.cfi_endproc
  80              	.LFE67:
  82              		.section	.text.loadContext,"ax",%progbits
  83              		.align	1
  84              		.global	loadContext
  85              		.syntax unified
  86              		.thumb
  87              		.thumb_func
  88              		.fpu softvfp
ARM GAS  C:\Users\Qian\AppData\Local\Temp\ccyniPX3.s 			page 3


  90              	loadContext:
  91              	.LFB68:
  31:Src/task_cpu.c **** 
  32:Src/task_cpu.c **** inline int loadContext(char** ptrToNextSP)
  33:Src/task_cpu.c **** {
  92              		.loc 1 33 0
  93              		.cfi_startproc
  94              		@ args = 0, pretend = 0, frame = 0
  95              		@ frame_needed = 0, uses_anonymous_args = 0
  96              	.LVL5:
  97 0000 10B5     		push	{r4, lr}
  98              	.LCFI0:
  99              		.cfi_def_cfa_offset 8
 100              		.cfi_offset 4, -8
 101              		.cfi_offset 14, -4
  34:Src/task_cpu.c ****     uint32_t t;
  35:Src/task_cpu.c ****     logger(&huart1, "LoadContext\n");
 102              		.loc 1 35 0
 103 0002 0A4C     		ldr	r4, .L5
 104 0004 0A49     		ldr	r1, .L5+4
 105 0006 2046     		mov	r0, r4
 106              	.LVL6:
 107 0008 FFF7FEFF 		bl	logger
 108              	.LVL7:
  36:Src/task_cpu.c ****     asm volatile (
 109              		.loc 1 36 0
 110              		.syntax unified
 111              	@ 36 "Src/task_cpu.c" 1
 112 000c EFF30983 		MRS    r3, psp             
 113 0010 B3E8F00F 		LDMFD  r3!, {r4-r11}       
 114              		
 115              	@ 0 "" 2
 116              	.LVL8:
  37:Src/task_cpu.c ****         "MRS    %0, psp             \n\t"
  38:Src/task_cpu.c ****         "LDMFD  %0!, {r4-r11}       \n\t"
  39:Src/task_cpu.c ****         : "=r" (t)
  40:Src/task_cpu.c ****     );
  41:Src/task_cpu.c ****     logger(&huart1, "LoadContext_MoveSPFin\n");
 117              		.loc 1 41 0
 118              		.thumb
 119              		.syntax unified
 120 0014 0749     		ldr	r1, .L5+8
 121 0016 2046     		mov	r0, r4
 122 0018 FFF7FEFF 		bl	logger
 123              	.LVL9:
  42:Src/task_cpu.c ****     asm volatile (
 124              		.loc 1 42 0
 125              		.syntax unified
 126              	@ 42 "Src/task_cpu.c" 1
 127 001c 83F30988 		MSR    psp, r3             
 128 0020 6FF0020E 		MOV    lr, 0xFFFFFFFD      
 129 0024 62B6     		CPSIE I                    
 130 0026 7047     		BX     lr                  
 131              		
 132              	@ 0 "" 2
  43:Src/task_cpu.c ****         "MSR    psp, %0             \n\t"
  44:Src/task_cpu.c ****         "MOV    lr, 0xFFFFFFFD      \n\t"
ARM GAS  C:\Users\Qian\AppData\Local\Temp\ccyniPX3.s 			page 4


  45:Src/task_cpu.c ****         "CPSIE I                    \n\t"
  46:Src/task_cpu.c ****         "BX     lr                  \n\t"
  47:Src/task_cpu.c ****         : "=r" (t)
  48:Src/task_cpu.c ****     );
  49:Src/task_cpu.c ****     return 0;
  50:Src/task_cpu.c **** }
 133              		.loc 1 50 0
 134              		.thumb
 135              		.syntax unified
 136 0028 0020     		movs	r0, #0
 137 002a 10BD     		pop	{r4, pc}
 138              	.L6:
 139              		.align	2
 140              	.L5:
 141 002c 00000000 		.word	huart1
 142 0030 00000000 		.word	.LC0
 143 0034 10000000 		.word	.LC1
 144              		.cfi_endproc
 145              	.LFE68:
 147              		.section	.text.contextSwitcher,"ax",%progbits
 148              		.align	1
 149              		.global	contextSwitcher
 150              		.syntax unified
 151              		.thumb
 152              		.thumb_func
 153              		.fpu softvfp
 155              	contextSwitcher:
 156              	.LFB69:
  51:Src/task_cpu.c **** 
  52:Src/task_cpu.c **** inline int contextSwitcher(char* nextSP)
  53:Src/task_cpu.c **** {
 157              		.loc 1 53 0
 158              		.cfi_startproc
 159              		@ args = 0, pretend = 0, frame = 0
 160              		@ frame_needed = 0, uses_anonymous_args = 0
 161              	.LVL10:
 162 0000 10B5     		push	{r4, lr}
 163              	.LCFI1:
 164              		.cfi_def_cfa_offset 8
 165              		.cfi_offset 4, -8
 166              		.cfi_offset 14, -4
 167 0002 0446     		mov	r4, r0
  54:Src/task_cpu.c ****     logger(&huart1, "ContextSwitcher\n");
 168              		.loc 1 54 0
 169 0004 0349     		ldr	r1, .L9
 170 0006 0448     		ldr	r0, .L9+4
 171              	.LVL11:
 172 0008 FFF7FEFF 		bl	logger
 173              	.LVL12:
  55:Src/task_cpu.c ****     asm volatile (
 174              		.loc 1 55 0
 175              		.syntax unified
 176              	@ 55 "Src/task_cpu.c" 1
 177 000c 80F30988 		MSR    psp, r0             
 178              		
 179              	@ 0 "" 2
  56:Src/task_cpu.c **** //        "MSR    psp, %0             \n\t"
ARM GAS  C:\Users\Qian\AppData\Local\Temp\ccyniPX3.s 			page 5


  57:Src/task_cpu.c ****         "MSR    psp, r0             \n\t"
  58:Src/task_cpu.c ****         :
  59:Src/task_cpu.c ****         : "r" (nextSP)
  60:Src/task_cpu.c ****     );
  61:Src/task_cpu.c ****     return 0;
  62:Src/task_cpu.c **** }
 180              		.loc 1 62 0
 181              		.thumb
 182              		.syntax unified
 183 0010 0020     		movs	r0, #0
 184 0012 10BD     		pop	{r4, pc}
 185              	.LVL13:
 186              	.L10:
 187              		.align	2
 188              	.L9:
 189 0014 00000000 		.word	.LC2
 190 0018 00000000 		.word	huart1
 191              		.cfi_endproc
 192              	.LFE69:
 194              		.section	.text.enterCritical,"ax",%progbits
 195              		.align	1
 196              		.global	enterCritical
 197              		.syntax unified
 198              		.thumb
 199              		.thumb_func
 200              		.fpu softvfp
 202              	enterCritical:
 203              	.LFB70:
  63:Src/task_cpu.c **** 
  64:Src/task_cpu.c **** inline int enterCritical()
  65:Src/task_cpu.c **** {
 204              		.loc 1 65 0
 205              		.cfi_startproc
 206              		@ args = 0, pretend = 0, frame = 0
 207              		@ frame_needed = 0, uses_anonymous_args = 0
 208              		@ link register save eliminated.
  66:Src/task_cpu.c ****     asm volatile (
 209              		.loc 1 66 0
 210              		.syntax unified
 211              	@ 66 "Src/task_cpu.c" 1
 212 0000 72B6     		CPSID I
 213              	@ 0 "" 2
  67:Src/task_cpu.c ****         "CPSID I"
  68:Src/task_cpu.c ****     );
  69:Src/task_cpu.c ****     return 0;
  70:Src/task_cpu.c **** }
 214              		.loc 1 70 0
 215              		.thumb
 216              		.syntax unified
 217 0002 0020     		movs	r0, #0
 218 0004 7047     		bx	lr
 219              		.cfi_endproc
 220              	.LFE70:
 222              		.section	.text.exitCritical,"ax",%progbits
 223              		.align	1
 224              		.global	exitCritical
 225              		.syntax unified
ARM GAS  C:\Users\Qian\AppData\Local\Temp\ccyniPX3.s 			page 6


 226              		.thumb
 227              		.thumb_func
 228              		.fpu softvfp
 230              	exitCritical:
 231              	.LFB71:
  71:Src/task_cpu.c **** 
  72:Src/task_cpu.c **** inline int exitCritical()
  73:Src/task_cpu.c **** {
 232              		.loc 1 73 0
 233              		.cfi_startproc
 234              		@ args = 0, pretend = 0, frame = 0
 235              		@ frame_needed = 0, uses_anonymous_args = 0
 236              		@ link register save eliminated.
  74:Src/task_cpu.c ****     asm volatile (
 237              		.loc 1 74 0
 238              		.syntax unified
 239              	@ 74 "Src/task_cpu.c" 1
 240 0000 62B6     		CPSIE I
 241              	@ 0 "" 2
  75:Src/task_cpu.c ****         "CPSIE I"
  76:Src/task_cpu.c ****     );
  77:Src/task_cpu.c ****     return 0;
  78:Src/task_cpu.c **** }...
 242              		.loc 1 78 0
 243              		.thumb
 244              		.syntax unified
 245 0002 0020     		movs	r0, #0
 246 0004 7047     		bx	lr
 247              		.cfi_endproc
 248              	.LFE71:
 250              		.section	.rodata.contextSwitcher.str1.4,"aMS",%progbits,1
 251              		.align	2
 252              	.LC2:
 253 0000 436F6E74 		.ascii	"ContextSwitcher\012\000"
 253      65787453 
 253      77697463 
 253      6865720A 
 253      00
 254              		.section	.rodata.loadContext.str1.4,"aMS",%progbits,1
 255              		.align	2
 256              	.LC0:
 257 0000 4C6F6164 		.ascii	"LoadContext\012\000"
 257      436F6E74 
 257      6578740A 
 257      00
 258 000d 000000   		.space	3
 259              	.LC1:
 260 0010 4C6F6164 		.ascii	"LoadContext_MoveSPFin\012\000"
 260      436F6E74 
 260      6578745F 
 260      4D6F7665 
 260      53504669 
 261              		.text
 262              	.Letext0:
 263              		.file 2 "d:\\program files (x86)\\gnu tools arm embedded\\7 2017-q4-major\\arm-none-eabi\\include\
 264              		.file 3 "d:\\program files (x86)\\gnu tools arm embedded\\7 2017-q4-major\\arm-none-eabi\\include\
 265              		.file 4 "d:\\program files (x86)\\gnu tools arm embedded\\7 2017-q4-major\\arm-none-eabi\\include\
ARM GAS  C:\Users\Qian\AppData\Local\Temp\ccyniPX3.s 			page 7


 266              		.file 5 "d:\\program files (x86)\\gnu tools arm embedded\\7 2017-q4-major\\lib\\gcc\\arm-none-eabi
 267              		.file 6 "d:\\program files (x86)\\gnu tools arm embedded\\7 2017-q4-major\\arm-none-eabi\\include\
 268              		.file 7 "d:\\program files (x86)\\gnu tools arm embedded\\7 2017-q4-major\\arm-none-eabi\\include\
 269              		.file 8 "d:\\program files (x86)\\gnu tools arm embedded\\7 2017-q4-major\\arm-none-eabi\\include\
 270              		.file 9 "Drivers/CMSIS/Include/core_cm3.h"
 271              		.file 10 "Drivers/CMSIS/Device/ST/STM32F1xx/Include/system_stm32f1xx.h"
 272              		.file 11 "Drivers/CMSIS/Device/ST/STM32F1xx/Include/stm32f103xb.h"
 273              		.file 12 "Drivers/STM32F1xx_HAL_Driver/Inc/stm32f1xx_hal_def.h"
 274              		.file 13 "Drivers/STM32F1xx_HAL_Driver/Inc/stm32f1xx_hal_dma.h"
 275              		.file 14 "Drivers/STM32F1xx_HAL_Driver/Inc/stm32f1xx_hal_uart.h"
 276              		.file 15 "Inc/debug.h"
ARM GAS  C:\Users\Qian\AppData\Local\Temp\ccyniPX3.s 			page 8

