ARM GAS  C:\Users\Qian\AppData\Local\Temp\ccMXR71K.s 			page 1


   1              		.cpu cortex-m3
   2              		.eabi_attribute 20, 1
   3              		.eabi_attribute 21, 1
   4              		.eabi_attribute 23, 3
   5              		.eabi_attribute 24, 1
   6              		.eabi_attribute 25, 1
   7              		.eabi_attribute 26, 1
   8              		.eabi_attribute 30, 1
   9              		.eabi_attribute 34, 1
  10              		.eabi_attribute 18, 4
  11              		.file	"task.c"
  12              		.text
  13              	.Ltext0:
  14              		.cfi_sections	.debug_frame
  15              		.section	.text.initTask,"ax",%progbits
  16              		.align	1
  17              		.global	initTask
  18              		.syntax unified
  19              		.thumb
  20              		.thumb_func
  21              		.fpu softvfp
  23              	initTask:
  24              	.LFB66:
  25              		.file 1 "Src/task.c"
   1:Src/task.c    **** #include "task.h"
   2:Src/task.c    **** 
   3:Src/task.c    **** #include "debug.h"
   4:Src/task.c    **** 
   5:Src/task.c    **** extern huart1;
   6:Src/task.c    **** 
   7:Src/task.c    **** task_control_block_t tcb[MAX_TASK_COUNT];
   8:Src/task.c    **** 
   9:Src/task.c    **** uint32_t currentTask = 0;
  10:Src/task.c    **** 
  11:Src/task.c    **** int initTask()
  12:Src/task.c    **** {
  26              		.loc 1 12 0
  27              		.cfi_startproc
  28              		@ args = 0, pretend = 0, frame = 0
  29              		@ frame_needed = 0, uses_anonymous_args = 0
  30              		@ link register save eliminated.
  31              	.LVL0:
  13:Src/task.c    ****     int i;
  14:Src/task.c    ****     for (i = 0;i < MAX_TASK_COUNT; i++)
  32              		.loc 1 14 0
  33 0000 0023     		movs	r3, #0
  34 0002 00E0     		b	.L2
  35              	.LVL1:
  36              	.L3:
  37              		.loc 1 14 0 is_stmt 0 discriminator 3
  38 0004 0133     		adds	r3, r3, #1
  39              	.LVL2:
  40              	.L2:
  41              		.loc 1 14 0 discriminator 1
  42 0006 092B     		cmp	r3, #9
  43 0008 FCDD     		ble	.L3
  15:Src/task.c    ****     {
ARM GAS  C:\Users\Qian\AppData\Local\Temp\ccMXR71K.s 			page 2


  16:Src/task.c    ****         tcb[i].state == TASK_FREE;
  17:Src/task.c    ****     }
  18:Src/task.c    **** }
  44              		.loc 1 18 0 is_stmt 1
  45 000a 7047     		bx	lr
  46              		.cfi_endproc
  47              	.LFE66:
  49              		.section	.text.createTask,"ax",%progbits
  50              		.align	1
  51              		.global	createTask
  52              		.syntax unified
  53              		.thumb
  54              		.thumb_func
  55              		.fpu softvfp
  57              	createTask:
  58              	.LFB67:
  19:Src/task.c    **** 
  20:Src/task.c    **** int createTask( void* (*foo)(void*))
  21:Src/task.c    **** {
  59              		.loc 1 21 0
  60              		.cfi_startproc
  61              		@ args = 0, pretend = 0, frame = 0
  62              		@ frame_needed = 0, uses_anonymous_args = 0
  63              	.LVL3:
  64 0000 F8B5     		push	{r3, r4, r5, r6, r7, lr}
  65              	.LCFI0:
  66              		.cfi_def_cfa_offset 24
  67              		.cfi_offset 3, -24
  68              		.cfi_offset 4, -20
  69              		.cfi_offset 5, -16
  70              		.cfi_offset 6, -12
  71              		.cfi_offset 7, -8
  72              		.cfi_offset 14, -4
  73 0002 0546     		mov	r5, r0
  22:Src/task.c    ****     hw_stack_frame_t* hw_process_frame;
  23:Src/task.c    ****     sw_stack_frame_t* sw_process_frame;
  24:Src/task.c    ****     int i, j;
  25:Src/task.c    **** 
  26:Src/task.c    ****     enterCritical();
  74              		.loc 1 26 0
  75 0004 FFF7FEFF 		bl	enterCritical
  76              	.LVL4:
  27:Src/task.c    ****     for (i = 0; i < MAX_TASK_COUNT; i++)
  77              		.loc 1 27 0
  78 0008 0024     		movs	r4, #0
  79 000a 00E0     		b	.L5
  80              	.LVL5:
  81              	.L6:
  82              		.loc 1 27 0 is_stmt 0 discriminator 2
  83 000c 0134     		adds	r4, r4, #1
  84              	.LVL6:
  85              	.L5:
  86              		.loc 1 27 0 discriminator 1
  87 000e 092C     		cmp	r4, #9
  88 0010 3FDC     		bgt	.L10
  28:Src/task.c    ****     {
  29:Src/task.c    ****         if (tcb[i].state == TASK_FREE)
ARM GAS  C:\Users\Qian\AppData\Local\Temp\ccMXR71K.s 			page 3


  89              		.loc 1 29 0 is_stmt 1
  90 0012 04EB8403 		add	r3, r4, r4, lsl #2
  91 0016 9A00     		lsls	r2, r3, #2
  92 0018 224B     		ldr	r3, .L12
  93 001a 1344     		add	r3, r3, r2
  94 001c 1B7C     		ldrb	r3, [r3, #16]	@ zero_extendqisi2
  95 001e 002B     		cmp	r3, #0
  96 0020 F4D1     		bne	.L6
  30:Src/task.c    ****         {
  31:Src/task.c    ****             tcb[i].sp = (char*)((SRAM_TOP_ADDRESS - (i * STACK_FRAME_SIZE)) - sizeof(hw_stack_frame
  97              		.loc 1 31 0
  98 0022 C4F50013 		rsb	r3, r4, #2097152
  99 0026 1033     		adds	r3, r3, #16
 100 0028 1902     		lsls	r1, r3, #8
 101 002a A1F12002 		sub	r2, r1, #32
 102 002e 1D4E     		ldr	r6, .L12
 103 0030 A300     		lsls	r3, r4, #2
 104 0032 2344     		add	r3, r3, r4
 105 0034 9800     		lsls	r0, r3, #2
 106 0036 3718     		adds	r7, r6, r0
 107 0038 3250     		str	r2, [r6, r0]
 108              	.LVL7:
  32:Src/task.c    ****             hw_process_frame = (hw_stack_frame_t*)tcb[i].sp;
  33:Src/task.c    ****             hw_process_frame->r0 = 0;
 109              		.loc 1 33 0
 110 003a 0023     		movs	r3, #0
 111 003c 41F8203C 		str	r3, [r1, #-32]
  34:Src/task.c    ****             hw_process_frame->r1 = 0;
 112              		.loc 1 34 0
 113 0040 41F81C3C 		str	r3, [r1, #-28]
  35:Src/task.c    ****             hw_process_frame->r2 = 0;
 114              		.loc 1 35 0
 115 0044 41F8183C 		str	r3, [r1, #-24]
  36:Src/task.c    ****             hw_process_frame->r3 = 0;
 116              		.loc 1 36 0
 117 0048 41F8143C 		str	r3, [r1, #-20]
  37:Src/task.c    ****             hw_process_frame->r12 = 0;
 118              		.loc 1 37 0
 119 004c 41F8103C 		str	r3, [r1, #-16]
  38:Src/task.c    ****             hw_process_frame->pc = (uint32_t)foo;
 120              		.loc 1 38 0
 121 0050 41F8085C 		str	r5, [r1, #-8]
  39:Src/task.c    ****             hw_process_frame->lr = RETURN_THREAD_MODE_EXEC_PSP;
 122              		.loc 1 39 0
 123 0054 6FF00201 		mvn	r1, #2
 124 0058 5161     		str	r1, [r2, #20]
  40:Src/task.c    ****             hw_process_frame->psr = PSR_INIT;
 125              		.loc 1 40 0
 126 005a 4FF00451 		mov	r1, #553648128
 127 005e D161     		str	r1, [r2, #28]
  41:Src/task.c    **** 
  42:Src/task.c    ****             tcb[i].sp = tcb[i].sp - sizeof(sw_stack_frame_t);
 128              		.loc 1 42 0
 129 0060 3158     		ldr	r1, [r6, r0]
 130 0062 A1F12002 		sub	r2, r1, #32
 131              	.LVL8:
 132 0066 3250     		str	r2, [r6, r0]
ARM GAS  C:\Users\Qian\AppData\Local\Temp\ccMXR71K.s 			page 4


 133              	.LVL9:
  43:Src/task.c    ****             sw_process_frame = (sw_stack_frame_t*)tcb[i].sp;
  44:Src/task.c    ****             sw_process_frame->r4 = 0;
 134              		.loc 1 44 0
 135 0068 41F8203C 		str	r3, [r1, #-32]
  45:Src/task.c    ****             sw_process_frame->r5 = 0;
 136              		.loc 1 45 0
 137 006c 41F81C3C 		str	r3, [r1, #-28]
  46:Src/task.c    ****             sw_process_frame->r6 = 0;
 138              		.loc 1 46 0
 139 0070 41F8183C 		str	r3, [r1, #-24]
  47:Src/task.c    ****             sw_process_frame->r7 = 0;
 140              		.loc 1 47 0
 141 0074 41F8143C 		str	r3, [r1, #-20]
  48:Src/task.c    ****             sw_process_frame->r8 = 0;
 142              		.loc 1 48 0
 143 0078 41F8103C 		str	r3, [r1, #-16]
  49:Src/task.c    ****             sw_process_frame->r9 = 0;
 144              		.loc 1 49 0
 145 007c 41F80C3C 		str	r3, [r1, #-12]
  50:Src/task.c    ****             sw_process_frame->r10 = 0;
 146              		.loc 1 50 0
 147 0080 41F8083C 		str	r3, [r1, #-8]
  51:Src/task.c    ****             sw_process_frame->r11 = 0;
 148              		.loc 1 51 0
 149 0084 41F8043C 		str	r3, [r1, #-4]
  52:Src/task.c    **** 
  53:Src/task.c    ****             tcb[i].state = TASK_READY;
 150              		.loc 1 53 0
 151 0088 0122     		movs	r2, #1
 152              	.LVL10:
 153 008a 3A74     		strb	r2, [r7, #16]
  54:Src/task.c    ****             tcb[i].delay = 0;
 154              		.loc 1 54 0
 155 008c FB60     		str	r3, [r7, #12]
  55:Src/task.c    ****             tcb[i].priority = 0;
 156              		.loc 1 55 0
 157 008e BB60     		str	r3, [r7, #8]
 158 0090 BCE7     		b	.L6
 159              	.LVL11:
 160              	.L10:
  56:Src/task.c    ****         }
  57:Src/task.c    ****     }
  58:Src/task.c    ****     exitCritical();
 161              		.loc 1 58 0
 162 0092 FFF7FEFF 		bl	exitCritical
 163              	.LVL12:
  59:Src/task.c    **** 
  60:Src/task.c    ****     if (i == MAX_TASK_COUNT)
 164              		.loc 1 60 0
 165 0096 0A2C     		cmp	r4, #10
 166 0098 01D0     		beq	.L11
 167              	.LVL13:
 168              	.L4:
  61:Src/task.c    ****         return -1;
  62:Src/task.c    ****     else
  63:Src/task.c    ****         return i;
ARM GAS  C:\Users\Qian\AppData\Local\Temp\ccMXR71K.s 			page 5


  64:Src/task.c    **** }
 169              		.loc 1 64 0
 170 009a 2046     		mov	r0, r4
 171 009c F8BD     		pop	{r3, r4, r5, r6, r7, pc}
 172              	.LVL14:
 173              	.L11:
  61:Src/task.c    ****         return -1;
 174              		.loc 1 61 0
 175 009e 4FF0FF34 		mov	r4, #-1
 176              	.LVL15:
 177 00a2 FAE7     		b	.L4
 178              	.L13:
 179              		.align	2
 180              	.L12:
 181 00a4 00000000 		.word	tcb
 182              		.cfi_endproc
 183              	.LFE67:
 185              		.section	.text.delTask,"ax",%progbits
 186              		.align	1
 187              		.global	delTask
 188              		.syntax unified
 189              		.thumb
 190              		.thumb_func
 191              		.fpu softvfp
 193              	delTask:
 194              	.LFB68:
  65:Src/task.c    **** 
  66:Src/task.c    **** int delTask()
  67:Src/task.c    **** {
 195              		.loc 1 67 0
 196              		.cfi_startproc
 197              		@ args = 0, pretend = 0, frame = 0
 198              		@ frame_needed = 0, uses_anonymous_args = 0
 199              		@ link register save eliminated.
  68:Src/task.c    ****     return 0;
  69:Src/task.c    **** }
 200              		.loc 1 69 0
 201 0000 0020     		movs	r0, #0
 202 0002 7047     		bx	lr
 203              		.cfi_endproc
 204              	.LFE68:
 206              		.section	.text.taskDelay,"ax",%progbits
 207              		.align	1
 208              		.global	taskDelay
 209              		.syntax unified
 210              		.thumb
 211              		.thumb_func
 212              		.fpu softvfp
 214              	taskDelay:
 215              	.LFB69:
  70:Src/task.c    **** 
  71:Src/task.c    **** int taskDelay(uint32_t value)
  72:Src/task.c    **** {
 216              		.loc 1 72 0
 217              		.cfi_startproc
 218              		@ args = 0, pretend = 0, frame = 0
 219              		@ frame_needed = 0, uses_anonymous_args = 0
ARM GAS  C:\Users\Qian\AppData\Local\Temp\ccMXR71K.s 			page 6


 220              		@ link register save eliminated.
 221              	.LVL16:
 222 0000 30B4     		push	{r4, r5}
 223              	.LCFI1:
 224              		.cfi_def_cfa_offset 8
 225              		.cfi_offset 4, -8
 226              		.cfi_offset 5, -4
  73:Src/task.c    ****     tcb[currentTask].delay = value;
 227              		.loc 1 73 0
 228 0002 074B     		ldr	r3, .L17
 229 0004 1C68     		ldr	r4, [r3]
 230 0006 074A     		ldr	r2, .L17+4
 231 0008 A300     		lsls	r3, r4, #2
 232 000a 1D19     		adds	r5, r3, r4
 233 000c A900     		lsls	r1, r5, #2
 234 000e 0D46     		mov	r5, r1
 235 0010 1144     		add	r1, r1, r2
 236 0012 C860     		str	r0, [r1, #12]
  74:Src/task.c    ****     tcb[currentTask].state = TASK_SLEEPING;
 237              		.loc 1 74 0
 238 0014 2A44     		add	r2, r2, r5
 239 0016 0323     		movs	r3, #3
 240 0018 1374     		strb	r3, [r2, #16]
 241              	.LVL17:
  75:Src/task.c    **** }
 242              		.loc 1 75 0
 243 001a 30BC     		pop	{r4, r5}
 244              	.LCFI2:
 245              		.cfi_restore 5
 246              		.cfi_restore 4
 247              		.cfi_def_cfa_offset 0
 248 001c 7047     		bx	lr
 249              	.L18:
 250 001e 00BF     		.align	2
 251              	.L17:
 252 0020 00000000 		.word	.LANCHOR0
 253 0024 00000000 		.word	tcb
 254              		.cfi_endproc
 255              	.LFE69:
 257              		.section	.text.getNextReady,"ax",%progbits
 258              		.align	1
 259              		.global	getNextReady
 260              		.syntax unified
 261              		.thumb
 262              		.thumb_func
 263              		.fpu softvfp
 265              	getNextReady:
 266              	.LFB70:
  76:Src/task.c    **** 
  77:Src/task.c    **** int getNextReady()
  78:Src/task.c    **** {
 267              		.loc 1 78 0
 268              		.cfi_startproc
 269              		@ args = 0, pretend = 0, frame = 0
 270              		@ frame_needed = 0, uses_anonymous_args = 0
 271              		@ link register save eliminated.
 272              	.LVL18:
ARM GAS  C:\Users\Qian\AppData\Local\Temp\ccMXR71K.s 			page 7


  79:Src/task.c    ****     int i;
  80:Src/task.c    ****     for (i = 0; i < MAX_TASK_COUNT; i++)
 273              		.loc 1 80 0
 274 0000 0020     		movs	r0, #0
 275              	.LVL19:
 276              	.L20:
 277              		.loc 1 80 0 is_stmt 0 discriminator 1
 278 0002 0928     		cmp	r0, #9
 279 0004 09DC     		bgt	.L23
  81:Src/task.c    ****     {
  82:Src/task.c    ****         if (tcb[i].state == TASK_READY)
 280              		.loc 1 82 0 is_stmt 1
 281 0006 00EB8003 		add	r3, r0, r0, lsl #2
 282 000a 9A00     		lsls	r2, r3, #2
 283 000c 044B     		ldr	r3, .L24
 284 000e 1344     		add	r3, r3, r2
 285 0010 1B7C     		ldrb	r3, [r3, #16]	@ zero_extendqisi2
 286 0012 012B     		cmp	r3, #1
 287 0014 03D0     		beq	.L19
  80:Src/task.c    ****     {
 288              		.loc 1 80 0 discriminator 2
 289 0016 0130     		adds	r0, r0, #1
 290              	.LVL20:
 291 0018 F3E7     		b	.L20
 292              	.L23:
  83:Src/task.c    ****         {
  84:Src/task.c    ****             return i;
  85:Src/task.c    ****         }
  86:Src/task.c    ****     }
  87:Src/task.c    ****     return NO_SUCH_TASK;
 293              		.loc 1 87 0
 294 001a 4FF0FF30 		mov	r0, #-1
 295              	.LVL21:
 296              	.L19:
  88:Src/task.c    **** }
 297              		.loc 1 88 0
 298 001e 7047     		bx	lr
 299              	.L25:
 300              		.align	2
 301              	.L24:
 302 0020 00000000 		.word	tcb
 303              		.cfi_endproc
 304              	.LFE70:
 306              		.section	.text.switchTaskTo,"ax",%progbits
 307              		.align	1
 308              		.global	switchTaskTo
 309              		.syntax unified
 310              		.thumb
 311              		.thumb_func
 312              		.fpu softvfp
 314              	switchTaskTo:
 315              	.LFB71:
  89:Src/task.c    **** 
  90:Src/task.c    **** int switchTaskTo(int nextTask)
  91:Src/task.c    **** {
 316              		.loc 1 91 0
 317              		.cfi_startproc
ARM GAS  C:\Users\Qian\AppData\Local\Temp\ccMXR71K.s 			page 8


 318              		@ args = 0, pretend = 0, frame = 0
 319              		@ frame_needed = 0, uses_anonymous_args = 0
 320              	.LVL22:
 321 0000 70B5     		push	{r4, r5, r6, lr}
 322              	.LCFI3:
 323              		.cfi_def_cfa_offset 16
 324              		.cfi_offset 4, -16
 325              		.cfi_offset 5, -12
 326              		.cfi_offset 6, -8
 327              		.cfi_offset 14, -4
  92:Src/task.c    ****     int oldTask = currentTask;
 328              		.loc 1 92 0
 329 0002 0F4D     		ldr	r5, .L28
 330 0004 2968     		ldr	r1, [r5]
 331              	.LVL23:
  93:Src/task.c    ****     tcb[currentTask].state = TASK_READY;
 332              		.loc 1 93 0
 333 0006 0F4C     		ldr	r4, .L28+4
 334 0008 8B00     		lsls	r3, r1, #2
 335 000a 5E18     		adds	r6, r3, r1
 336 000c B200     		lsls	r2, r6, #2
 337 000e 2244     		add	r2, r2, r4
 338 0010 0126     		movs	r6, #1
 339 0012 1674     		strb	r6, [r2, #16]
  94:Src/task.c    ****     tcb[nextTask].state = TASK_RUNNING;
 340              		.loc 1 94 0
 341 0014 00EB8006 		add	r6, r0, r0, lsl #2
 342 0018 B200     		lsls	r2, r6, #2
 343 001a 2244     		add	r2, r2, r4
 344 001c 0226     		movs	r6, #2
 345 001e 1674     		strb	r6, [r2, #16]
  95:Src/task.c    ****     currentTask = nextTask;
 346              		.loc 1 95 0
 347 0020 2860     		str	r0, [r5]
  96:Src/task.c    ****     saveContext(&tcb[oldTask].sp);
 348              		.loc 1 96 0
 349 0022 0B44     		add	r3, r3, r1
 350 0024 03FA06F0 		lsl	r0, r3, r6
 351              	.LVL24:
 352 0028 2044     		add	r0, r0, r4
 353 002a FFF7FEFF 		bl	saveContext
 354              	.LVL25:
  97:Src/task.c    ****     loadContext(&tcb[currentTask].sp);
 355              		.loc 1 97 0
 356 002e 2B68     		ldr	r3, [r5]
 357 0030 03EB8303 		add	r3, r3, r3, lsl #2
 358 0034 03FA06F0 		lsl	r0, r3, r6
 359 0038 2044     		add	r0, r0, r4
 360 003a FFF7FEFF 		bl	loadContext
 361              	.LVL26:
  98:Src/task.c    **** }
 362              		.loc 1 98 0
 363 003e 70BD     		pop	{r4, r5, r6, pc}
 364              	.L29:
 365              		.align	2
 366              	.L28:
 367 0040 00000000 		.word	.LANCHOR0
ARM GAS  C:\Users\Qian\AppData\Local\Temp\ccMXR71K.s 			page 9


 368 0044 00000000 		.word	tcb
 369              		.cfi_endproc
 370              	.LFE71:
 372              		.section	.text.runFirstTask,"ax",%progbits
 373              		.align	1
 374              		.global	runFirstTask
 375              		.syntax unified
 376              		.thumb
 377              		.thumb_func
 378              		.fpu softvfp
 380              	runFirstTask:
 381              	.LFB72:
  99:Src/task.c    **** 
 100:Src/task.c    **** int runFirstTask(int nextTask)
 101:Src/task.c    **** {
 382              		.loc 1 101 0
 383              		.cfi_startproc
 384              		@ args = 0, pretend = 0, frame = 0
 385              		@ frame_needed = 0, uses_anonymous_args = 0
 386              	.LVL27:
 387 0000 10B5     		push	{r4, lr}
 388              	.LCFI4:
 389              		.cfi_def_cfa_offset 8
 390              		.cfi_offset 4, -8
 391              		.cfi_offset 14, -4
 392 0002 0446     		mov	r4, r0
 102:Src/task.c    ****     logger(&huart1, "RunFirstTask\n");
 393              		.loc 1 102 0
 394 0004 0949     		ldr	r1, .L32
 395 0006 0A48     		ldr	r0, .L32+4
 396              	.LVL28:
 397 0008 FFF7FEFF 		bl	logger
 398              	.LVL29:
 103:Src/task.c    ****     currentTask = nextTask;
 399              		.loc 1 103 0
 400 000c 094B     		ldr	r3, .L32+8
 401 000e 1C60     		str	r4, [r3]
 104:Src/task.c    ****     tcb[currentTask].state = TASK_RUNNING;
 402              		.loc 1 104 0
 403 0010 0948     		ldr	r0, .L32+12
 404 0012 A300     		lsls	r3, r4, #2
 405 0014 1919     		adds	r1, r3, r4
 406 0016 8A00     		lsls	r2, r1, #2
 407 0018 0244     		add	r2, r2, r0
 408 001a 0221     		movs	r1, #2
 409 001c 1174     		strb	r1, [r2, #16]
 105:Src/task.c    ****     loadContext(&tcb[currentTask].sp);
 410              		.loc 1 105 0
 411 001e 2344     		add	r3, r3, r4
 412 0020 03FA01F2 		lsl	r2, r3, r1
 413 0024 1044     		add	r0, r0, r2
 414 0026 FFF7FEFF 		bl	loadContext
 415              	.LVL30:
 106:Src/task.c    **** }
 416              		.loc 1 106 0
 417 002a 10BD     		pop	{r4, pc}
 418              	.LVL31:
ARM GAS  C:\Users\Qian\AppData\Local\Temp\ccMXR71K.s 			page 10


 419              	.L33:
 420              		.align	2
 421              	.L32:
 422 002c 00000000 		.word	.LC0
 423 0030 00000000 		.word	huart1
 424 0034 00000000 		.word	.LANCHOR0
 425 0038 00000000 		.word	tcb
 426              		.cfi_endproc
 427              	.LFE72:
 429              		.section	.text.task_sysTickHandler,"ax",%progbits
 430              		.align	1
 431              		.global	task_sysTickHandler
 432              		.syntax unified
 433              		.thumb
 434              		.thumb_func
 435              		.fpu softvfp
 437              	task_sysTickHandler:
 438              	.LFB73:
 107:Src/task.c    **** 
 108:Src/task.c    **** int task_sysTickHandler()
 109:Src/task.c    **** {
 439              		.loc 1 109 0
 440              		.cfi_startproc
 441              		@ args = 0, pretend = 0, frame = 0
 442              		@ frame_needed = 0, uses_anonymous_args = 0
 443              		@ link register save eliminated.
 444              	.LVL32:
 110:Src/task.c    ****     int i;
 111:Src/task.c    ****     for (i = 0; i < MAX_TASK_COUNT; i++)
 445              		.loc 1 111 0
 446 0000 0023     		movs	r3, #0
 447 0002 00E0     		b	.L35
 448              	.LVL33:
 449              	.L36:
 450              		.loc 1 111 0 is_stmt 0 discriminator 2
 451 0004 0133     		adds	r3, r3, #1
 452              	.LVL34:
 453              	.L35:
 454              		.loc 1 111 0 discriminator 1
 455 0006 092B     		cmp	r3, #9
 456 0008 14DC     		bgt	.L38
 112:Src/task.c    ****     {
 113:Src/task.c    ****         if (tcb[i].state == TASK_SLEEPING)
 457              		.loc 1 113 0 is_stmt 1
 458 000a 03EB8302 		add	r2, r3, r3, lsl #2
 459 000e 9100     		lsls	r1, r2, #2
 460 0010 094A     		ldr	r2, .L39
 461 0012 0A44     		add	r2, r2, r1
 462 0014 127C     		ldrb	r2, [r2, #16]	@ zero_extendqisi2
 463 0016 032A     		cmp	r2, #3
 464 0018 F4D1     		bne	.L36
 114:Src/task.c    ****         {
 115:Src/task.c    ****             tcb[i].delay--;
 465              		.loc 1 115 0
 466 001a 0846     		mov	r0, r1
 467 001c 0649     		ldr	r1, .L39
 468 001e 0144     		add	r1, r1, r0
ARM GAS  C:\Users\Qian\AppData\Local\Temp\ccMXR71K.s 			page 11


 469 0020 CA68     		ldr	r2, [r1, #12]
 470 0022 013A     		subs	r2, r2, #1
 471 0024 CA60     		str	r2, [r1, #12]
 116:Src/task.c    ****             if (tcb[i].delay == 0)
 472              		.loc 1 116 0
 473 0026 002A     		cmp	r2, #0
 474 0028 ECD1     		bne	.L36
 117:Src/task.c    ****             {
 118:Src/task.c    ****                 tcb[i].state = TASK_READY;
 475              		.loc 1 118 0
 476 002a 034A     		ldr	r2, .L39
 477 002c 0244     		add	r2, r2, r0
 478 002e 0121     		movs	r1, #1
 479 0030 1174     		strb	r1, [r2, #16]
 480 0032 E7E7     		b	.L36
 481              	.L38:
 119:Src/task.c    ****             }
 120:Src/task.c    ****         }
 121:Src/task.c    ****     }
 122:Src/task.c    ****     return 0;
 123:Src/task.c    **** }
 482              		.loc 1 123 0
 483 0034 0020     		movs	r0, #0
 484 0036 7047     		bx	lr
 485              	.L40:
 486              		.align	2
 487              	.L39:
 488 0038 00000000 		.word	tcb
 489              		.cfi_endproc
 490              	.LFE73:
 492              		.global	currentTask
 493              		.comm	tcb,200,4
 494              		.section	.bss.currentTask,"aw",%nobits
 495              		.align	2
 496              		.set	.LANCHOR0,. + 0
 499              	currentTask:
 500 0000 00000000 		.space	4
 501              		.section	.rodata.runFirstTask.str1.4,"aMS",%progbits,1
 502              		.align	2
 503              	.LC0:
 504 0000 52756E46 		.ascii	"RunFirstTask\012\000"
 504      69727374 
 504      5461736B 
 504      0A00
 505              		.text
 506              	.Letext0:
 507              		.file 2 "d:\\program files (x86)\\gnu tools arm embedded\\7 2017-q4-major\\arm-none-eabi\\include\
 508              		.file 3 "d:\\program files (x86)\\gnu tools arm embedded\\7 2017-q4-major\\arm-none-eabi\\include\
 509              		.file 4 "Inc/task_cpu.h"
 510              		.file 5 "Inc/task.h"
 511              		.file 6 "Drivers/CMSIS/Include/core_cm3.h"
 512              		.file 7 "Drivers/CMSIS/Device/ST/STM32F1xx/Include/system_stm32f1xx.h"
 513              		.file 8 "d:\\program files (x86)\\gnu tools arm embedded\\7 2017-q4-major\\arm-none-eabi\\include\
 514              		.file 9 "d:\\program files (x86)\\gnu tools arm embedded\\7 2017-q4-major\\arm-none-eabi\\include\
 515              		.file 10 "d:\\program files (x86)\\gnu tools arm embedded\\7 2017-q4-major\\lib\\gcc\\arm-none-eab
 516              		.file 11 "d:\\program files (x86)\\gnu tools arm embedded\\7 2017-q4-major\\arm-none-eabi\\include
 517              		.file 12 "Inc/debug.h"
ARM GAS  C:\Users\Qian\AppData\Local\Temp\ccMXR71K.s 			page 12


ARM GAS  C:\Users\Qian\AppData\Local\Temp\ccMXR71K.s 			page 13

